target datalayout = "e-m:e-p270:32:32-p271:32:32-p272:64:64-i64:64-i128:128-f80:128-n8:16:32:64-S128"
target triple = "x86_64-pc-linux-gnu"

%struct.VkComponentMapping = type { i32, i32, i32, i32 }
%struct.SDL_AtomicInt = type { i32 }
%struct.VulkanRenderer = type { ptr, ptr, %struct.VkPhysicalDeviceProperties2, %struct.VkPhysicalDeviceDriverProperties, %struct.VkPhysicalDeviceFeatures, ptr, i8, i8, i8, i8, i8, i8, i32, i32, %struct.VulkanExtensions, i8, i8, i8, i8, ptr, %struct.VkPhysicalDeviceMemoryProperties, i8, ptr, i32, i32, i32, ptr, ptr, i32, i32, %struct.VulkanFencePool, ptr, ptr, ptr, ptr, ptr, ptr, ptr, i32, i32, ptr, i32, i32, %struct.SDL_AtomicInt, i32, ptr, i32, i32, ptr, i32, i32, ptr, i32, i32, ptr, i32, i32, ptr, i32, i32, ptr, i32, i32, ptr, i32, i32, ptr, ptr, ptr, ptr, ptr, ptr, ptr, ptr, ptr, ptr, ptr, i8, ptr, i32, i32, ptr, ptr, ptr, ptr, ptr, ptr, ptr, ptr, ptr, ptr, ptr, ptr, ptr, ptr, ptr, ptr, ptr, ptr, ptr, ptr, ptr, ptr, ptr, ptr, ptr, ptr, ptr, ptr, ptr, ptr, ptr, ptr, ptr, ptr, ptr, ptr, ptr, ptr, ptr, ptr, ptr, ptr, ptr, ptr, ptr, ptr, ptr, ptr, ptr, ptr, ptr, ptr, ptr, ptr, ptr, ptr, ptr, ptr, ptr, ptr, ptr, ptr, ptr, ptr, ptr, ptr, ptr, ptr, ptr, ptr, ptr, ptr, ptr, ptr, ptr, ptr, ptr, ptr, ptr, ptr, ptr, ptr, ptr, ptr, ptr, ptr, ptr, ptr, ptr, ptr, ptr, ptr, ptr, ptr, ptr, ptr, ptr, ptr, ptr, ptr, ptr, ptr, ptr, ptr, ptr, ptr, ptr, ptr, ptr, ptr }
%struct.VkPhysicalDeviceProperties2 = type { i32, ptr, %struct.VkPhysicalDeviceProperties }
%struct.VkPhysicalDeviceProperties = type { i32, i32, i32, i32, i32, [256 x i8], [16 x i8], %struct.VkPhysicalDeviceLimits, %struct.VkPhysicalDeviceSparseProperties }
%struct.VkPhysicalDeviceLimits = type { i32, i32, i32, i32, i32, i32, i32, i32, i32, i32, i32, i64, i64, i32, i32, i32, i32, i32, i32, i32, i32, i32, i32, i32, i32, i32, i32, i32, i32, i32, i32, i32, i32, i32, i32, i32, i32, i32, i32, i32, i32, i32, i32, i32, i32, i32, i32, i32, i32, i32, i32, i32, [3 x i32], i32, [3 x i32], i32, i32, i32, i32, i32, float, float, i32, [2 x i32], [2 x float], i32, i64, i64, i64, i64, i32, i32, i32, i32, float, float, i32, i32, i32, i32, i32, i32, i32, i32, i32, i32, i32, i32, i32, i32, i32, i32, float, i32, i32, i32, i32, [2 x float], [2 x float], float, float, i32, i32, i64, i64, i64 }
%struct.VkPhysicalDeviceSparseProperties = type { i32, i32, i32, i32, i32 }
%struct.VkPhysicalDeviceDriverProperties = type { i32, ptr, i32, [256 x i8], [256 x i8], %struct.VkConformanceVersion }
%struct.VkConformanceVersion = type { i8, i8, i8, i8 }
%struct.VkPhysicalDeviceFeatures = type { i32, i32, i32, i32, i32, i32, i32, i32, i32, i32, i32, i32, i32, i32, i32, i32, i32, i32, i32, i32, i32, i32, i32, i32, i32, i32, i32, i32, i32, i32, i32, i32, i32, i32, i32, i32, i32, i32, i32, i32, i32, i32, i32, i32, i32, i32, i32, i32, i32, i32, i32, i32, i32, i32, i32 }
%struct.VulkanExtensions = type { i8, i8, i8, i8, i8 }
%struct.VkPhysicalDeviceMemoryProperties = type { i32, [32 x %struct.VkMemoryType], i32, [16 x %struct.VkMemoryHeap] }
%struct.VkMemoryType = type { i32, i32 }
%struct.VkMemoryHeap = type { i64, i32 }
%struct.VulkanFencePool = type { ptr, ptr, i32, i32 }
%struct.VkDebugUtilsObjectNameInfoEXT = type { i32, ptr, i32, i64, ptr }
%struct.VulkanTextureContainer = type { %struct.TextureCommonHeader, ptr, i32, i32, ptr, ptr, i8 }
%struct.TextureCommonHeader = type { %struct.SDL_GPUTextureCreateInfo }
%struct.SDL_GPUTextureCreateInfo = type { i32, i32, i32, i32, i32, i32, i32, i32, i32 }
%struct.VulkanTexture = type { ptr, i32, ptr, ptr, ptr, %struct.VkComponentMapping, i32, i32, i32, i32, ptr, i8, %struct.SDL_AtomicInt }

; Function Attrs: nounwind uwtable
define internal void @VULKAN_INTERNAL_SetTextureName(ptr noundef %0, ptr noundef %1, ptr noundef %2) #0 {
  %4 = alloca ptr, align 8
  %5 = alloca ptr, align 8
  %6 = alloca ptr, align 8
  %7 = alloca %struct.VkDebugUtilsObjectNameInfoEXT, align 8
  store ptr %0, ptr %4, align 8
  store ptr %1, ptr %5, align 8
  store ptr %2, ptr %6, align 8
  call void @llvm.lifetime.start.p0(i64 40, ptr %7) #9
  %8 = load ptr, ptr %4, align 8
  %9 = getelementptr inbounds nuw %struct.VulkanRenderer, ptr %8, i32 0, i32 10
  %10 = load i8, ptr %9, align 4, !range !3, !noundef !4
  %11 = trunc i8 %10 to i1
  br i1 %11, label %12, label %35

12:                                               ; preds = %3
  %13 = load ptr, ptr %4, align 8
  %14 = getelementptr inbounds nuw %struct.VulkanRenderer, ptr %13, i32 0, i32 15
  %15 = load i8, ptr %14, align 1, !range !3, !noundef !4
  %16 = trunc i8 %15 to i1
  br i1 %16, label %17, label %35

17:                                               ; preds = %12
  %18 = getelementptr inbounds nuw %struct.VkDebugUtilsObjectNameInfoEXT, ptr %7, i32 0, i32 0
  store i32 1000128000, ptr %18, align 8
  %19 = getelementptr inbounds nuw %struct.VkDebugUtilsObjectNameInfoEXT, ptr %7, i32 0, i32 1
  store ptr null, ptr %19, align 8
  %20 = load ptr, ptr %6, align 8
  %21 = getelementptr inbounds nuw %struct.VkDebugUtilsObjectNameInfoEXT, ptr %7, i32 0, i32 4
  store ptr %20, ptr %21, align 8
  %22 = getelementptr inbounds nuw %struct.VkDebugUtilsObjectNameInfoEXT, ptr %7, i32 0, i32 2
  store i32 10, ptr %22, align 8
  %23 = load ptr, ptr %5, align 8
  %24 = getelementptr inbounds nuw %struct.VulkanTexture, ptr %23, i32 0, i32 3
  %25 = load ptr, ptr %24, align 8
  %26 = ptrtoint ptr %25 to i64
  %27 = getelementptr inbounds nuw %struct.VkDebugUtilsObjectNameInfoEXT, ptr %7, i32 0, i32 3
  store i64 %26, ptr %27, align 8
  %28 = load ptr, ptr %4, align 8
  %29 = getelementptr inbounds nuw %struct.VulkanRenderer, ptr %28, i32 0, i32 99
  %30 = load ptr, ptr %29, align 8
  %31 = load ptr, ptr %4, align 8
  %32 = getelementptr inbounds nuw %struct.VulkanRenderer, ptr %31, i32 0, i32 5
  %33 = load ptr, ptr %32, align 8
  %34 = call i32 %30(ptr noundef %33, ptr noundef %7)
  br label %35

35:                                               ; preds = %17, %12, %3
  call void @llvm.lifetime.end.p0(i64 40, ptr %7) #9
  ret void
}

; Function Attrs: nounwind uwtable
define internal void @VULKAN_SetTextureName(ptr noundef %0, ptr noundef %1, ptr noundef %2) #0 {
  %4 = alloca ptr, align 8
  %5 = alloca ptr, align 8
  %6 = alloca ptr, align 8
  %7 = alloca ptr, align 8
  %8 = alloca ptr, align 8
  %9 = alloca i64, align 8
  %10 = alloca i32, align 4
  store ptr %0, ptr %4, align 8
  store ptr %1, ptr %5, align 8
  store ptr %2, ptr %6, align 8
  call void @llvm.lifetime.start.p0(i64 8, ptr %7) #9
  %11 = load ptr, ptr %4, align 8
  store ptr %11, ptr %7, align 8
  call void @llvm.lifetime.start.p0(i64 8, ptr %8) #9
  %12 = load ptr, ptr %5, align 8
  store ptr %12, ptr %8, align 8
  call void @llvm.lifetime.start.p0(i64 8, ptr %9) #9
  %13 = load ptr, ptr %6, align 8
  %14 = call i64 @SDL_strlen_REAL(ptr noundef %13)
  %15 = add i64 %14, 1
  store i64 %15, ptr %9, align 8
  %16 = load ptr, ptr %7, align 8
  %17 = getelementptr inbounds nuw %struct.VulkanRenderer, ptr %16, i32 0, i32 10
  %18 = load i8, ptr %17, align 4, !range !3, !noundef !4
  %19 = trunc i8 %18 to i1
  br i1 %19, label %20, label %60

20:                                               ; preds = %3
  %21 = load ptr, ptr %7, align 8
  %22 = getelementptr inbounds nuw %struct.VulkanRenderer, ptr %21, i32 0, i32 15
  %23 = load i8, ptr %22, align 1, !range !3, !noundef !4
  %24 = trunc i8 %23 to i1
  br i1 %24, label %25, label %60

25:                                               ; preds = %20
  %26 = load ptr, ptr %8, align 8
  %27 = getelementptr inbounds nuw %struct.VulkanTextureContainer, ptr %26, i32 0, i32 5
  %28 = load ptr, ptr %27, align 8
  %29 = load i64, ptr %9, align 8
  %30 = call ptr @SDL_realloc_REAL(ptr noundef %28, i64 noundef %29) #11
  %31 = load ptr, ptr %8, align 8
  %32 = getelementptr inbounds nuw %struct.VulkanTextureContainer, ptr %31, i32 0, i32 5
  store ptr %30, ptr %32, align 8
  %33 = load ptr, ptr %8, align 8
  %34 = getelementptr inbounds nuw %struct.VulkanTextureContainer, ptr %33, i32 0, i32 5
  %35 = load ptr, ptr %34, align 8
  %36 = load ptr, ptr %6, align 8
  %37 = load i64, ptr %9, align 8
  %38 = call i64 @SDL_utf8strlcpy_REAL(ptr noundef %35, ptr noundef %36, i64 noundef %37)
  call void @llvm.lifetime.start.p0(i64 4, ptr %10) #9
  store i32 0, ptr %10, align 4
  br label %39

39:                                               ; preds = %56, %25
  %40 = load i32, ptr %10, align 4
  %41 = load ptr, ptr %8, align 8
  %42 = getelementptr inbounds nuw %struct.VulkanTextureContainer, ptr %41, i32 0, i32 3
  %43 = load i32, ptr %42, align 4
  %44 = icmp ult i32 %40, %43
  br i1 %44, label %46, label %45

45:                                               ; preds = %39
  call void @llvm.lifetime.end.p0(i64 4, ptr %10) #9
  br label %59

46:                                               ; preds = %39
  %47 = load ptr, ptr %7, align 8
  %48 = load ptr, ptr %8, align 8
  %49 = getelementptr inbounds nuw %struct.VulkanTextureContainer, ptr %48, i32 0, i32 4
  %50 = load ptr, ptr %49, align 8
  %51 = load i32, ptr %10, align 4
  %52 = zext i32 %51 to i64
  %53 = getelementptr inbounds nuw ptr, ptr %50, i64 %52
  %54 = load ptr, ptr %53, align 8
  %55 = load ptr, ptr %6, align 8
  call void @VULKAN_INTERNAL_SetTextureName(ptr noundef %47, ptr noundef %54, ptr noundef %55)
  br label %56

56:                                               ; preds = %46
  %57 = load i32, ptr %10, align 4
  %58 = add i32 %57, 1
  store i32 %58, ptr %10, align 4
  br label %39, !llvm.loop !26

59:                                               ; preds = %45
  br label %60

60:                                               ; preds = %59, %20, %3
  call void @llvm.lifetime.end.p0(i64 8, ptr %9) #9
  call void @llvm.lifetime.end.p0(i64 8, ptr %8) #9
  call void @llvm.lifetime.end.p0(i64 8, ptr %7) #9
  ret void
}