; Function Attrs: nounwind uwtable
define internal void @VULKAN_SetTextureName(ptr noundef readonly captures(none) %0, ptr noundef captures(none) %1, ptr noundef %2) #0 {
  %4 = alloca %struct.VkDebugUtilsObjectNameInfoEXT, align 8
  %5 = tail call i64 @SDL_strlen_REAL(ptr noundef %2) #13
  %6 = add i64 %5, 1
  %7 = getelementptr inbounds nuw i8, ptr %0, i64 1628
  %8 = load i8, ptr %7, align 4, !range !3, !noundef !4
  %9 = trunc nuw i8 %8 to i1
  br i1 %9, label %10, label %.loopexit

10:                                               ; preds = %3
  %11 = getelementptr inbounds nuw i8, ptr %0, i64 1645
  %12 = load i8, ptr %11, align 1, !range !3, !noundef !4
  %13 = trunc nuw i8 %12 to i1
  br i1 %13, label %14, label %.loopexit

14:                                               ; preds = %10
  %15 = getelementptr inbounds nuw i8, ptr %1, i64 64
  %16 = load ptr, ptr %15, align 8
  %17 = tail call ptr @SDL_realloc_REAL(ptr noundef %16, i64 noundef %6) #16
  store ptr %17, ptr %15, align 8
  %18 = tail call i64 @SDL_utf8strlcpy_REAL(ptr noundef %17, ptr noundef %2, i64 noundef %6) #13
  %19 = getelementptr inbounds nuw i8, ptr %1, i64 52
  %20 = load i32, ptr %19, align 4
  %.not = icmp eq i32 %20, 0
  br i1 %.not, label %.loopexit, label %.lr.ph

.lr.ph:                                           ; preds = %14
  %21 = getelementptr inbounds nuw i8, ptr %1, i64 56
  %22 = getelementptr inbounds nuw i8, ptr %4, i64 8
  %23 = getelementptr inbounds nuw i8, ptr %4, i64 32
  %24 = getelementptr inbounds nuw i8, ptr %4, i64 16
  %25 = getelementptr inbounds nuw i8, ptr %4, i64 24
  %26 = getelementptr inbounds nuw i8, ptr %0, i64 2720
  %27 = getelementptr inbounds nuw i8, ptr %0, i64 1616
  %28 = load i8, ptr %7, align 4, !range !3, !noundef !4
  %29 = trunc nuw i8 %28 to i1
  br i1 %29, label %.lr.ph.split, label %.loopexit

.lr.ph.split:                                     ; preds = %.lr.ph, %VULKAN_INTERNAL_SetTextureName.exit
  %30 = phi i32 [ %46, %VULKAN_INTERNAL_SetTextureName.exit ], [ %20, %.lr.ph ]
  %indvars.iv = phi i64 [ %indvars.iv.next, %VULKAN_INTERNAL_SetTextureName.exit ], [ 0, %.lr.ph ]
  %31 = load ptr, ptr %21, align 8
  %32 = getelementptr inbounds nuw ptr, ptr %31, i64 %indvars.iv
  %33 = load ptr, ptr %32, align 8
  call void @llvm.lifetime.start.p0(i64 40, ptr nonnull %4) #13
  %34 = load i8, ptr %7, align 4, !range !3, !noundef !4
  %35 = trunc nuw i8 %34 to i1
  br i1 %35, label %36, label %VULKAN_INTERNAL_SetTextureName.exit

36:                                               ; preds = %.lr.ph.split
  %37 = load i8, ptr %11, align 1, !range !3, !noundef !4
  %38 = trunc nuw i8 %37 to i1
  br i1 %38, label %39, label %VULKAN_INTERNAL_SetTextureName.exit

39:                                               ; preds = %36
  store i32 1000128000, ptr %4, align 8
  store ptr null, ptr %22, align 8
  store ptr %2, ptr %23, align 8
  store i32 10, ptr %24, align 8
  %40 = getelementptr inbounds nuw i8, ptr %33, i64 24
  %41 = load ptr, ptr %40, align 8
  %42 = ptrtoint ptr %41 to i64
  store i64 %42, ptr %25, align 8
  %43 = load ptr, ptr %26, align 8
  %44 = load ptr, ptr %27, align 8
  %45 = call i32 %43(ptr noundef %44, ptr noundef nonnull %4) #13
  %.pre = load i32, ptr %19, align 4
  br label %VULKAN_INTERNAL_SetTextureName.exit

VULKAN_INTERNAL_SetTextureName.exit:              ; preds = %.lr.ph.split, %36, %39
  %46 = phi i32 [ %30, %.lr.ph.split ], [ %30, %36 ], [ %.pre, %39 ]
  call void @llvm.lifetime.end.p0(i64 40, ptr nonnull %4) #13
  %indvars.iv.next = add nuw nsw i64 %indvars.iv, 1
  %47 = zext i32 %46 to i64
  %48 = icmp samesign ult i64 %indvars.iv.next, %47
  br i1 %48, label %.lr.ph.split, label %.loopexit, !llvm.loop !33

.loopexit:                                        ; preds = %VULKAN_INTERNAL_SetTextureName.exit, %.lr.ph, %14, %10, %3
  ret void
}